target datalayout = "e-m:e-p270:32:32-p271:32:32-p272:64:64-i64:64-i128:128-f80:128-n8:16:32:64-S128"
target triple = "x86_64-pc-linux-gnu"

; Function Attrs: alwaysinline nounwind willreturn memory(none) uwtable
define internal i32 @av_clip_uintp2_c(i32 noundef %0, i32 noundef %1) #2 {
  %3 = alloca i32, align 4
  %4 = alloca i32, align 4
  %5 = alloca i32, align 4
  store i32 %0, ptr %4, align 4, !tbaa !11
  store i32 %1, ptr %5, align 4, !tbaa !11
  %6 = load i32, ptr %4, align 4, !tbaa !11
  %7 = load i32, ptr %5, align 4, !tbaa !11
  %8 = shl i32 1, %7
  %9 = sub i32 %8, 1
  %10 = xor i32 %9, -1
  %11 = and i32 %6, %10
  %12 = icmp ne i32 %11, 0
  br i1 %12, label %13, label %21

13:                                               ; preds = %2
  %14 = load i32, ptr %4, align 4, !tbaa !11
  %15 = xor i32 %14, -1
  %16 = ashr i32 %15, 31
  %17 = load i32, ptr %5, align 4, !tbaa !11
  %18 = shl i32 1, %17
  %19 = sub i32 %18, 1
  %20 = and i32 %16, %19
  store i32 %20, ptr %3, align 4
  br label %23

21:                                               ; preds = %2
  %22 = load i32, ptr %4, align 4, !tbaa !11
  store i32 %22, ptr %3, align 4
  br label %23

23:                                               ; preds = %21, %13
  %24 = load i32, ptr %3, align 4
  ret i32 %24
}

; Function Attrs: nounwind uwtable
define void @ff_h264_idct_dc_add_14_c(ptr noundef %0, ptr noundef %1, i32 noundef %2) #0 {
  %4 = alloca ptr, align 8
  %5 = alloca ptr, align 8
  %6 = alloca i32, align 4
  %7 = alloca i32, align 4
  %8 = alloca i32, align 4
  %9 = alloca ptr, align 8
  %10 = alloca ptr, align 8
  %11 = alloca i32, align 4
  store ptr %0, ptr %4, align 8, !tbaa !4
  store ptr %1, ptr %5, align 8, !tbaa !9
  store i32 %2, ptr %6, align 4, !tbaa !11
  call void @llvm.lifetime.start.p0(i64 4, ptr %7) #4
  call void @llvm.lifetime.start.p0(i64 4, ptr %8) #4
  call void @llvm.lifetime.start.p0(i64 8, ptr %9) #4
  %12 = load ptr, ptr %4, align 8, !tbaa !4
  store ptr %12, ptr %9, align 8, !tbaa !9
  call void @llvm.lifetime.start.p0(i64 8, ptr %10) #4
  %13 = load ptr, ptr %5, align 8, !tbaa !9
  store ptr %13, ptr %10, align 8, !tbaa !25
  call void @llvm.lifetime.start.p0(i64 4, ptr %11) #4
  %14 = load ptr, ptr %10, align 8, !tbaa !25
  %15 = getelementptr inbounds i32, ptr %14, i64 0
  %16 = load i32, ptr %15, align 4, !tbaa !11
  %17 = add nsw i32 %16, 32
  %18 = ashr i32 %17, 6
  store i32 %18, ptr %11, align 4, !tbaa !11
  %19 = load i32, ptr %6, align 4, !tbaa !11
  %20 = sext i32 %19 to i64
  %21 = udiv i64 %20, 2
  %22 = trunc i64 %21 to i32
  store i32 %22, ptr %6, align 4, !tbaa !11
  %23 = load ptr, ptr %10, align 8, !tbaa !25
  %24 = getelementptr inbounds i32, ptr %23, i64 0
  store i32 0, ptr %24, align 4, !tbaa !11
  store i32 0, ptr %8, align 4, !tbaa !11
  br label %25

25:                                               ; preds = %55, %3
  %26 = load i32, ptr %8, align 4, !tbaa !11
  %27 = icmp slt i32 %26, 4
  br i1 %27, label %28, label %58

28:                                               ; preds = %25
  store i32 0, ptr %7, align 4, !tbaa !11
  br label %29

29:                                               ; preds = %47, %28
  %30 = load i32, ptr %7, align 4, !tbaa !11
  %31 = icmp slt i32 %30, 4
  br i1 %31, label %32, label %50

32:                                               ; preds = %29
  %33 = load ptr, ptr %9, align 8, !tbaa !9
  %34 = load i32, ptr %7, align 4, !tbaa !11
  %35 = sext i32 %34 to i64
  %36 = getelementptr inbounds i16, ptr %33, i64 %35
  %37 = load i16, ptr %36, align 2, !tbaa !13
  %38 = zext i16 %37 to i32
  %39 = load i32, ptr %11, align 4, !tbaa !11
  %40 = add nsw i32 %38, %39
  %41 = call i32 @av_clip_uintp2_c(i32 noundef %40, i32 noundef 14) #5
  %42 = trunc i32 %41 to i16
  %43 = load ptr, ptr %9, align 8, !tbaa !9
  %44 = load i32, ptr %7, align 4, !tbaa !11
  %45 = sext i32 %44 to i64
  %46 = getelementptr inbounds i16, ptr %43, i64 %45
  store i16 %42, ptr %46, align 2, !tbaa !13
  br label %47

47:                                               ; preds = %32
  %48 = load i32, ptr %7, align 4, !tbaa !11
  %49 = add nsw i32 %48, 1
  store i32 %49, ptr %7, align 4, !tbaa !11
  br label %29, !llvm.loop !110

50:                                               ; preds = %29
  %51 = load i32, ptr %6, align 4, !tbaa !11
  %52 = load ptr, ptr %9, align 8, !tbaa !9
  %53 = sext i32 %51 to i64
  %54 = getelementptr inbounds i16, ptr %52, i64 %53
  store ptr %54, ptr %9, align 8, !tbaa !9
  br label %55

55:                                               ; preds = %50
  %56 = load i32, ptr %8, align 4, !tbaa !11
  %57 = add nsw i32 %56, 1
  store i32 %57, ptr %8, align 4, !tbaa !11
  br label %25, !llvm.loop !111

58:                                               ; preds = %25
  call void @llvm.lifetime.end.p0(i64 4, ptr %11) #4
  call void @llvm.lifetime.end.p0(i64 8, ptr %10) #4
  call void @llvm.lifetime.end.p0(i64 8, ptr %9) #4
  call void @llvm.lifetime.end.p0(i64 4, ptr %8) #4
  call void @llvm.lifetime.end.p0(i64 4, ptr %7) #4
  ret void
}