; Function Attrs: nofree norecurse nosync nounwind memory(argmem: readwrite) uwtable
define void @ff_h264_idct_dc_add_14_c(ptr noundef captures(none) %0, ptr noundef captures(none) %1, i32 noundef %2) local_unnamed_addr #0 {
  %4 = load i32, ptr %1, align 4, !tbaa !18
  %5 = add nsw i32 %4, 32
  %6 = ashr i32 %5, 6
  %7 = ashr i32 %2, 1
  store i32 0, ptr %1, align 4, !tbaa !18
  %8 = sext i32 %7 to i64
  br label %.preheader

.preheader:                                       ; preds = %3, %17
  %.01519 = phi ptr [ %0, %3 ], [ %18, %17 ]
  %.01618 = phi i32 [ 0, %3 ], [ %19, %17 ]
  br label %9

9:                                                ; preds = %.preheader, %9
  %indvars.iv = phi i64 [ 0, %.preheader ], [ %indvars.iv.next, %9 ]
  %10 = getelementptr inbounds nuw i16, ptr %.01519, i64 %indvars.iv
  %11 = load i16, ptr %10, align 2, !tbaa !4
  %12 = zext i16 %11 to i32
  %13 = add nsw i32 %6, %12
  %14 = tail call i32 @llvm.smax.i32(i32 %13, i32 0)
  %15 = tail call i32 @llvm.umin.i32(i32 %14, i32 16383)
  %16 = trunc nuw nsw i32 %15 to i16
  store i16 %16, ptr %10, align 2, !tbaa !4
  %indvars.iv.next = add nuw nsw i64 %indvars.iv, 1
  %exitcond.not = icmp eq i64 %indvars.iv.next, 4
  br i1 %exitcond.not, label %17, label %9, !llvm.loop !103

17:                                               ; preds = %9
  %18 = getelementptr inbounds i16, ptr %.01519, i64 %8
  %19 = add nuw nsw i32 %.01618, 1
  %exitcond21.not = icmp eq i32 %19, 4
  br i1 %exitcond21.not, label %20, label %.preheader, !llvm.loop !104

20:                                               ; preds = %17
  ret void
}